target datalayout = "e-m:e-p270:32:32-p271:32:32-p272:64:64-i64:64-i128:128-f80:128-n8:16:32:64-S128"
target triple = "x86_64-pc-linux-gnu"

%struct.cmsysProcess_s = type { ptr, i32, [3 x i32], [3 x i32], i32, [1024 x i8], ptr, i32, double, ptr, i32, i32, i32, i32, i32, %struct.kwsysProcessTime_s, %struct.kwsysProcessTime_s, i32, i32, %struct.fd_set, i32, i32, i32, [1025 x i8], ptr, ptr, ptr, ptr, ptr, i32, i32, i32, [2 x i32], [2 x i32], [2 x i32], i32, ptr }
%struct.kwsysProcessTime_s = type { i64, i64 }
%struct.fd_set = type { [16 x i64] }

; Function Attrs: nounwind uwtable
define dso_local ptr @cmsysProcess_New() #0 {
  %1 = alloca ptr, align 8
  %2 = alloca ptr, align 8
  %3 = alloca i32, align 4
  call void @llvm.lifetime.start.p0(i64 8, ptr %2) #11
  %4 = call noalias ptr @malloc(i64 noundef 2416) #12
  store ptr %4, ptr %2, align 8, !tbaa !4
  %5 = load ptr, ptr %2, align 8, !tbaa !4
  %6 = icmp ne ptr %5, null
  br i1 %6, label %8, label %7

7:                                                ; preds = %0
  store ptr null, ptr %1, align 8
  store i32 1, ptr %3, align 4
  br label %33

8:                                                ; preds = %0
  %9 = load ptr, ptr %2, align 8, !tbaa !4
  call void @llvm.memset.p0.i64(ptr align 8 %9, i8 0, i64 2416, i1 false)
  %10 = load ptr, ptr %2, align 8, !tbaa !4
  %11 = getelementptr inbounds nuw %struct.cmsysProcess_s, ptr %10, i32 0, i32 29
  store i32 1, ptr %11, align 8, !tbaa !9
  %12 = load ptr, ptr %2, align 8, !tbaa !4
  %13 = getelementptr inbounds nuw %struct.cmsysProcess_s, ptr %12, i32 0, i32 32
  %14 = getelementptr inbounds [2 x i32], ptr %13, i64 0, i64 0
  store i32 -1, ptr %14, align 4, !tbaa !20
  %15 = load ptr, ptr %2, align 8, !tbaa !4
  %16 = getelementptr inbounds nuw %struct.cmsysProcess_s, ptr %15, i32 0, i32 32
  %17 = getelementptr inbounds [2 x i32], ptr %16, i64 0, i64 1
  store i32 -1, ptr %17, align 4, !tbaa !20
  %18 = load ptr, ptr %2, align 8, !tbaa !4
  %19 = getelementptr inbounds nuw %struct.cmsysProcess_s, ptr %18, i32 0, i32 33
  %20 = getelementptr inbounds [2 x i32], ptr %19, i64 0, i64 0
  store i32 -1, ptr %20, align 4, !tbaa !20
  %21 = load ptr, ptr %2, align 8, !tbaa !4
  %22 = getelementptr inbounds nuw %struct.cmsysProcess_s, ptr %21, i32 0, i32 33
  %23 = getelementptr inbounds [2 x i32], ptr %22, i64 0, i64 1
  store i32 -1, ptr %23, align 4, !tbaa !20
  %24 = load ptr, ptr %2, align 8, !tbaa !4
  %25 = getelementptr inbounds nuw %struct.cmsysProcess_s, ptr %24, i32 0, i32 34
  %26 = getelementptr inbounds [2 x i32], ptr %25, i64 0, i64 0
  store i32 -1, ptr %26, align 4, !tbaa !20
  %27 = load ptr, ptr %2, align 8, !tbaa !4
  %28 = getelementptr inbounds nuw %struct.cmsysProcess_s, ptr %27, i32 0, i32 34
  %29 = getelementptr inbounds [2 x i32], ptr %28, i64 0, i64 1
  store i32 -1, ptr %29, align 4, !tbaa !20
  %30 = load ptr, ptr %2, align 8, !tbaa !4
  %31 = getelementptr inbounds nuw %struct.cmsysProcess_s, ptr %30, i32 0, i32 21
  store volatile i32 0, ptr %31, align 4, !tbaa !21
  %32 = load ptr, ptr %2, align 8, !tbaa !4
  store ptr %32, ptr %1, align 8
  store i32 1, ptr %3, align 4
  br label %33

33:                                               ; preds = %8, %7
  call void @llvm.lifetime.end.p0(i64 8, ptr %2) #11
  %34 = load ptr, ptr %1, align 8
  ret ptr %34
}