; Function Attrs: nofree nounwind memory(readwrite, argmem: none) uwtable
define dso_local noundef ptr @cmsysProcess_New() local_unnamed_addr #0 {
  %calloc = tail call dereferenceable_or_null(2416) ptr @calloc(i64 1, i64 2416)
  %.not = icmp eq ptr %calloc, null
  br i1 %.not, label %5, label %1

1:                                                ; preds = %0
  %2 = getelementptr inbounds nuw i8, ptr %calloc, i64 2368
  store i32 1, ptr %2, align 8, !tbaa !4
  %3 = getelementptr inbounds nuw i8, ptr %calloc, i64 2380
  %4 = getelementptr inbounds nuw i8, ptr %calloc, i64 1292
  tail call void @llvm.memset.p0.i64(ptr noundef nonnull align 4 dereferenceable(24) %3, i8 -1, i64 24, i1 false)
  store volatile i32 0, ptr %4, align 4, !tbaa !18
  br label %5

5:                                                ; preds = %0, %1
  ret ptr %calloc
}